target datalayout = "e-m:e-p270:32:32-p271:32:32-p272:64:64-i64:64-i128:128-f80:128-n8:16:32:64-S128"
target triple = "x86_64-pc-linux-gnu"

; Function Attrs: mustprogress uwtable
define void @_ZN4base19PersistentSampleMap10AccumulateEii(ptr noundef nonnull align 8 dereferenceable(104) %0, i32 noundef %1, i32 noundef %2) unnamed_addr #0 align 2 {
  %4 = alloca ptr, align 8
  %5 = alloca i32, align 4
  %6 = alloca i32, align 4
  store ptr %0, ptr %4, align 8, !tbaa !3
  store i32 %1, ptr %5, align 4, !tbaa !34
  store i32 %2, ptr %6, align 4, !tbaa !34
  %7 = load ptr, ptr %4, align 8
  %8 = load i32, ptr %6, align 4, !tbaa !34
  %9 = load i32, ptr %5, align 4, !tbaa !34
  %10 = call noundef ptr @_ZN4base19PersistentSampleMap29GetOrCreateSampleCountStorageEi(ptr noundef nonnull align 8 dereferenceable(104) %7, i32 noundef %9)
  %11 = load i32, ptr %10, align 4, !tbaa !34
  %12 = add nsw i32 %11, %8
  store i32 %12, ptr %10, align 4, !tbaa !34
  %13 = load i32, ptr %6, align 4, !tbaa !34
  %14 = sext i32 %13 to i64
  %15 = load i32, ptr %5, align 4, !tbaa !34
  %16 = sext i32 %15 to i64
  %17 = mul nsw i64 %14, %16
  call void @_ZN4base16HistogramSamples11IncreaseSumEl(ptr noundef nonnull align 8 dereferenceable(40) %7, i64 noundef %17)
  %18 = load i32, ptr %6, align 4, !tbaa !34
  call void @_ZN4base16HistogramSamples22IncreaseRedundantCountEi(ptr noundef nonnull align 8 dereferenceable(40) %7, i32 noundef %18)
  ret void
}