; Function Attrs: mustprogress uwtable
define void @_ZN4base19PersistentSampleMap10AccumulateEii(ptr noundef nonnull align 8 dereferenceable(104) %0, i32 noundef %1, i32 noundef %2) unnamed_addr #0 align 2 {
  %4 = tail call noundef ptr @_ZN4base19PersistentSampleMap29GetOrCreateSampleCountStorageEi(ptr noundef nonnull align 8 dereferenceable(104) %0, i32 noundef %1)
  %5 = load i32, ptr %4, align 4, !tbaa !32
  %6 = add nsw i32 %5, %2
  store i32 %6, ptr %4, align 4, !tbaa !32
  %7 = sext i32 %2 to i64
  %8 = sext i32 %1 to i64
  %9 = mul nsw i64 %7, %8
  tail call void @_ZN4base16HistogramSamples11IncreaseSumEl(ptr noundef nonnull align 8 dereferenceable(40) %0, i64 noundef %9)
  tail call void @_ZN4base16HistogramSamples22IncreaseRedundantCountEi(ptr noundef nonnull align 8 dereferenceable(40) %0, i32 noundef %2)
  ret void
}